; Function Attrs: mustprogress uwtable
define dso_local void @_ZN22b3GpuRigidBodyPipeline13addConstraintEP17b3TypedConstraint(ptr nocapture noundef nonnull readonly align 8 dereferenceable(16) %this, ptr noundef %constraint) local_unnamed_addr #2 align 2 {
entry:
  %m_data = getelementptr inbounds i8, ptr %this, i64 8
  %0 = load ptr, ptr %m_data, align 8
  %m_size.i.i = getelementptr inbounds i8, ptr %0, i64 196
  %1 = load i32, ptr %m_size.i.i, align 4
  %m_capacity.i.i = getelementptr inbounds i8, ptr %0, i64 200
  %2 = load i32, ptr %m_capacity.i.i, align 8
  %cmp.i = icmp eq i32 %1, %2
  br i1 %cmp.i, label %if.then.i, label %_ZN20b3AlignedObjectArrayIP17b3TypedConstraintE9push_backERKS1_.exit

if.then.i:                                        ; preds = %entry
  %m_joints = getelementptr inbounds i8, ptr %0, i64 192
  %tobool.not.i.i = icmp eq i32 %1, 0
  %mul.i.i = shl nsw i32 %1, 1
  %cond.i.i = select i1 %tobool.not.i.i, i32 1, i32 %mul.i.i
  tail call void @_ZN20b3AlignedObjectArrayIP17b3TypedConstraintE7reserveEi(ptr noundef nonnull align 8 dereferenceable(25) %m_joints, i32 noundef %cond.i.i)
  %.pre.i = load i32, ptr %m_size.i.i, align 4
  br label %_ZN20b3AlignedObjectArrayIP17b3TypedConstraintE9push_backERKS1_.exit

_ZN20b3AlignedObjectArrayIP17b3TypedConstraintE9push_backERKS1_.exit: ; preds = %entry, %if.then.i
  %3 = phi i32 [ %.pre.i, %if.then.i ], [ %1, %entry ]
  %m_data.i = getelementptr inbounds i8, ptr %0, i64 208
  %4 = load ptr, ptr %m_data.i, align 8
  %idxprom.i = sext i32 %3 to i64
  %arrayidx.i = getelementptr inbounds ptr, ptr %4, i64 %idxprom.i
  store ptr %constraint, ptr %arrayidx.i, align 8
  %5 = load i32, ptr %m_size.i.i, align 4
  %inc.i = add nsw i32 %5, 1
  store i32 %inc.i, ptr %m_size.i.i, align 4
  ret void
}